target datalayout = "e-m:e-p270:32:32-p271:32:32-p272:64:64-i64:64-i128:128-f80:128-n8:16:32:64-S128"
target triple = "x86_64-pc-linux-gnu"

%struct.LinearAllocator = type { %struct.dtTileCacheAlloc, ptr, i64, i64, i64 }
%struct.dtTileCacheAlloc = type { ptr }
%class.Sample = type { ptr, ptr, ptr, ptr, ptr, i8, float, float, float, float, float, float, float, float, float, float, float, float, float, i32, i8, i8, i8, ptr, [9 x ptr], ptr, %class.SampleDebugDraw }
%class.SampleDebugDraw = type { %class.DebugDrawGL }
%class.DebugDrawGL = type { %struct.duDebugDraw }
%struct.duDebugDraw = type { ptr }
%class.Sample_TempObstacles = type <{ %class.Sample, i8, [7 x i8], ptr, ptr, ptr, ptr, float, i32, i32, i32, i32, i32, i32, i32, float, [4 x i8] }>
%struct.MeshProcess = type { %struct.dtTileCacheMeshProcess, ptr }
%struct.dtTileCacheMeshProcess = type { ptr }
%class.TempObstacleCreateTool = type { %struct.SampleTool, ptr }
%struct.SampleTool = type { ptr }

@_ZTV15LinearAllocator = dso_local unnamed_addr constant { [7 x ptr] } { [7 x ptr] [ptr null, ptr @_ZTI15LinearAllocator, ptr @_ZN15LinearAllocatorD1Ev, ptr @_ZN15LinearAllocatorD0Ev, ptr @_ZN15LinearAllocator5resetEv, ptr @_ZN15LinearAllocator5allocEm, ptr @_ZN15LinearAllocator4freeEPv] }, align 8
@_ZTV11MeshProcess = dso_local unnamed_addr constant { [5 x ptr] } { [5 x ptr] [ptr null, ptr @_ZTI11MeshProcess, ptr @_ZN11MeshProcessD1Ev, ptr @_ZN11MeshProcessD0Ev, ptr @_ZN11MeshProcess7processEP21dtNavMeshCreateParamsPhPt] }, align 8
@_ZTV21dtTileCacheCompressor = external unnamed_addr constant { [7 x ptr] }, align 8
@_ZTV16dtTileCacheAlloc = external unnamed_addr constant { [7 x ptr] }, align 8
@_ZTV22dtTileCacheMeshProcess = external unnamed_addr constant { [5 x ptr] }, align 8
@_ZTV10SampleTool = external unnamed_addr constant { [14 x ptr] }, align 8

; Function Attrs: mustprogress nounwind uwtable
define linkonce_odr dso_local void @_ZN10SampleToolC2Ev(ptr noundef nonnull align 8 dereferenceable(8) %0) unnamed_addr #0 comdat align 2 {
  %2 = alloca ptr, align 8
  store ptr %0, ptr %2, align 8
  %3 = load ptr, ptr %2, align 8
  store ptr getelementptr inbounds ({ [14 x ptr] }, ptr @_ZTV10SampleTool, i32 0, i32 0, i32 2), ptr %3, align 8
  ret void
}

; Function Attrs: mustprogress nounwind uwtable
define linkonce_odr dso_local void @_ZN22dtTileCacheMeshProcessC2Ev(ptr noundef nonnull align 8 dereferenceable(8) %0) unnamed_addr #0 comdat align 2 {
  %2 = alloca ptr, align 8
  store ptr %0, ptr %2, align 8
  %3 = load ptr, ptr %2, align 8
  store ptr getelementptr inbounds ({ [5 x ptr] }, ptr @_ZTV22dtTileCacheMeshProcess, i32 0, i32 0, i32 2), ptr %3, align 8
  ret void
}

; Function Attrs: mustprogress nounwind uwtable
define linkonce_odr dso_local void @_ZN21dtTileCacheCompressorC2Ev(ptr noundef nonnull align 8 dereferenceable(8) %0) unnamed_addr #0 comdat align 2 {
  %2 = alloca ptr, align 8
  store ptr %0, ptr %2, align 8
  %3 = load ptr, ptr %2, align 8
  store ptr getelementptr inbounds ({ [7 x ptr] }, ptr @_ZTV21dtTileCacheCompressor, i32 0, i32 0, i32 2), ptr %3, align 8
  ret void
}

; Function Attrs: mustprogress uwtable
define linkonce_odr dso_local void @_ZN15LinearAllocator6resizeEm(ptr noundef nonnull align 8 dereferenceable(40) %0, i64 noundef %1) #5 comdat align 2 {
  %3 = alloca ptr, align 8
  %4 = alloca i64, align 8
  store ptr %0, ptr %3, align 8
  store i64 %1, ptr %4, align 8
  %5 = load ptr, ptr %3, align 8
  %6 = getelementptr inbounds %struct.LinearAllocator, ptr %5, i32 0, i32 1
  %7 = load ptr, ptr %6, align 8
  %8 = icmp ne ptr %7, null
  br i1 %8, label %9, label %12

9:                                                ; preds = %2
  %10 = getelementptr inbounds %struct.LinearAllocator, ptr %5, i32 0, i32 1
  %11 = load ptr, ptr %10, align 8
  call void @_Z6dtFreePv(ptr noundef %11)
  br label %12

12:                                               ; preds = %9, %2
  %13 = load i64, ptr %4, align 8
  %14 = call noundef ptr @_Z7dtAllocm11dtAllocHint(i64 noundef %13, i32 noundef 0)
  %15 = getelementptr inbounds %struct.LinearAllocator, ptr %5, i32 0, i32 1
  store ptr %14, ptr %15, align 8
  %16 = load i64, ptr %4, align 8
  %17 = getelementptr inbounds %struct.LinearAllocator, ptr %5, i32 0, i32 2
  store i64 %16, ptr %17, align 8
  ret void
}

; Function Attrs: mustprogress nounwind uwtable
define linkonce_odr dso_local void @_ZN16dtTileCacheAllocC2Ev(ptr noundef nonnull align 8 dereferenceable(8) %0) unnamed_addr #0 comdat align 2 {
  %2 = alloca ptr, align 8
  store ptr %0, ptr %2, align 8
  %3 = load ptr, ptr %2, align 8
  store ptr getelementptr inbounds ({ [7 x ptr] }, ptr @_ZTV16dtTileCacheAlloc, i32 0, i32 0, i32 2), ptr %3, align 8
  ret void
}

; Function Attrs: mustprogress nounwind uwtable
define linkonce_odr dso_local void @_ZN22TempObstacleCreateToolC2Ev(ptr noundef nonnull align 8 dereferenceable(16) %0) unnamed_addr #0 comdat align 2 {
  %2 = alloca ptr, align 8
  store ptr %0, ptr %2, align 8
  %3 = load ptr, ptr %2, align 8
  call void @_ZN10SampleToolC2Ev(ptr noundef nonnull align 8 dereferenceable(8) %3) #10
  store ptr getelementptr inbounds ({ [14 x ptr] }, ptr @_ZTV22TempObstacleCreateTool, i32 0, i32 0, i32 2), ptr %3, align 8
  %4 = getelementptr inbounds %class.TempObstacleCreateTool, ptr %3, i32 0, i32 1
  store ptr null, ptr %4, align 8
  ret void
}

; Function Attrs: mustprogress nounwind uwtable
define linkonce_odr dso_local void @_ZN11MeshProcessC2Ev(ptr noundef nonnull align 8 dereferenceable(16) %0) unnamed_addr #0 comdat align 2 {
  %2 = alloca ptr, align 8
  store ptr %0, ptr %2, align 8
  %3 = load ptr, ptr %2, align 8
  call void @_ZN22dtTileCacheMeshProcessC2Ev(ptr noundef nonnull align 8 dereferenceable(8) %3) #10
  store ptr getelementptr inbounds ({ [5 x ptr] }, ptr @_ZTV11MeshProcess, i32 0, i32 0, i32 2), ptr %3, align 8
  %4 = getelementptr inbounds %struct.MeshProcess, ptr %3, i32 0, i32 1
  store ptr null, ptr %4, align 8
  ret void
}

; Function Attrs: mustprogress nounwind uwtable
define linkonce_odr dso_local void @_ZN16FastLZCompressorC2Ev(ptr noundef nonnull align 8 dereferenceable(8) %0) unnamed_addr #0 comdat align 2 {
  %2 = alloca ptr, align 8
  store ptr %0, ptr %2, align 8
  %3 = load ptr, ptr %2, align 8
  call void @_ZN21dtTileCacheCompressorC2Ev(ptr noundef nonnull align 8 dereferenceable(8) %3) #10
  store ptr getelementptr inbounds ({ [7 x ptr] }, ptr @_ZTV16FastLZCompressor, i32 0, i32 0, i32 2), ptr %3, align 8
  ret void
}

; Function Attrs: mustprogress uwtable
define linkonce_odr dso_local void @_ZN15LinearAllocatorC2Em(ptr noundef nonnull align 8 dereferenceable(40) %0, i64 noundef %1) unnamed_addr #5 comdat align 2 personality ptr @__gxx_personality_v0 {
  %3 = alloca ptr, align 8
  %4 = alloca i64, align 8
  %5 = alloca ptr, align 8
  %6 = alloca i32, align 4
  store ptr %0, ptr %3, align 8
  store i64 %1, ptr %4, align 8
  %7 = load ptr, ptr %3, align 8
  call void @_ZN16dtTileCacheAllocC2Ev(ptr noundef nonnull align 8 dereferenceable(8) %7) #10
  store ptr getelementptr inbounds ({ [7 x ptr] }, ptr @_ZTV15LinearAllocator, i32 0, i32 0, i32 2), ptr %7, align 8
  %8 = getelementptr inbounds %struct.LinearAllocator, ptr %7, i32 0, i32 1
  store ptr null, ptr %8, align 8
  %9 = getelementptr inbounds %struct.LinearAllocator, ptr %7, i32 0, i32 2
  store i64 0, ptr %9, align 8
  %10 = getelementptr inbounds %struct.LinearAllocator, ptr %7, i32 0, i32 3
  store i64 0, ptr %10, align 8
  %11 = getelementptr inbounds %struct.LinearAllocator, ptr %7, i32 0, i32 4
  store i64 0, ptr %11, align 8
  %12 = load i64, ptr %4, align 8
  invoke void @_ZN15LinearAllocator6resizeEm(ptr noundef nonnull align 8 dereferenceable(40) %7, i64 noundef %12)
          to label %13 unwind label %14

13:                                               ; preds = %2
  ret void

14:                                               ; preds = %2
  %15 = landingpad { ptr, i32 }
          cleanup
  %16 = extractvalue { ptr, i32 } %15, 0
  store ptr %16, ptr %5, align 8
  %17 = extractvalue { ptr, i32 } %15, 1
  store i32 %17, ptr %6, align 4
  call void @_ZN16dtTileCacheAllocD2Ev(ptr noundef nonnull align 8 dereferenceable(8) %7) #10
  br label %18

18:                                               ; preds = %14
  %19 = load ptr, ptr %5, align 8
  %20 = load i32, ptr %6, align 4
  %21 = insertvalue { ptr, i32 } poison, ptr %19, 0
  %22 = insertvalue { ptr, i32 } %21, i32 %20, 1
  resume { ptr, i32 } %22
}

; Function Attrs: mustprogress uwtable
define dso_local void @_ZN20Sample_TempObstaclesC2Ev(ptr noundef nonnull align 8 dereferenceable(276) %0) unnamed_addr #5 align 2 personality ptr @__gxx_personality_v0 {
  %2 = alloca ptr, align 8
  %3 = alloca ptr, align 8
  %4 = alloca i32, align 4
  store ptr %0, ptr %2, align 8
  %5 = load ptr, ptr %2, align 8
  call void @_ZN6SampleC2Ev(ptr noundef nonnull align 8 dereferenceable(200) %5)
  store ptr getelementptr inbounds ({ [23 x ptr] }, ptr @_ZTV20Sample_TempObstacles, i32 0, i32 0, i32 2), ptr %5, align 8
  %6 = getelementptr inbounds %class.Sample_TempObstacles, ptr %5, i32 0, i32 1
  store i8 0, ptr %6, align 8
  %7 = getelementptr inbounds %class.Sample_TempObstacles, ptr %5, i32 0, i32 6
  store ptr null, ptr %7, align 8
  %8 = getelementptr inbounds %class.Sample_TempObstacles, ptr %5, i32 0, i32 7
  store float 0.000000e+00, ptr %8, align 8
  %9 = getelementptr inbounds %class.Sample_TempObstacles, ptr %5, i32 0, i32 8
  store i32 0, ptr %9, align 4
  %10 = getelementptr inbounds %class.Sample_TempObstacles, ptr %5, i32 0, i32 9
  store i32 0, ptr %10, align 8
  %11 = getelementptr inbounds %class.Sample_TempObstacles, ptr %5, i32 0, i32 10
  store i32 0, ptr %11, align 4
  %12 = getelementptr inbounds %class.Sample_TempObstacles, ptr %5, i32 0, i32 11
  store i32 0, ptr %12, align 8
  %13 = getelementptr inbounds %class.Sample_TempObstacles, ptr %5, i32 0, i32 12
  store i32 0, ptr %13, align 4
  %14 = getelementptr inbounds %class.Sample_TempObstacles, ptr %5, i32 0, i32 13
  store i32 0, ptr %14, align 8
  %15 = getelementptr inbounds %class.Sample_TempObstacles, ptr %5, i32 0, i32 14
  store i32 0, ptr %15, align 4
  %16 = getelementptr inbounds %class.Sample_TempObstacles, ptr %5, i32 0, i32 15
  store float 4.800000e+01, ptr %16, align 8
  invoke void @_ZN6Sample19resetCommonSettingsEv(ptr noundef nonnull align 8 dereferenceable(200) %5)
          to label %17 unwind label %33

17:                                               ; preds = %1
  %18 = invoke noalias noundef nonnull ptr @_Znwm(i64 noundef 40) #13
          to label %19 unwind label %33

19:                                               ; preds = %17
  invoke void @_ZN15LinearAllocatorC2Em(ptr noundef nonnull align 8 dereferenceable(40) %18, i64 noundef 32000)
          to label %20 unwind label %37

20:                                               ; preds = %19
  %21 = getelementptr inbounds %class.Sample_TempObstacles, ptr %5, i32 0, i32 3
  store ptr %18, ptr %21, align 8
  %22 = invoke noalias noundef nonnull ptr @_Znwm(i64 noundef 8) #13
          to label %23 unwind label %33

23:                                               ; preds = %20
  call void @_ZN16FastLZCompressorC2Ev(ptr noundef nonnull align 8 dereferenceable(8) %22) #10
  %24 = getelementptr inbounds %class.Sample_TempObstacles, ptr %5, i32 0, i32 4
  store ptr %22, ptr %24, align 8
  %25 = invoke noalias noundef nonnull ptr @_Znwm(i64 noundef 16) #13
          to label %26 unwind label %33

26:                                               ; preds = %23
  invoke void @_ZN11MeshProcessC2Ev(ptr noundef nonnull align 8 dereferenceable(16) %25)
          to label %27 unwind label %41

27:                                               ; preds = %26
  %28 = getelementptr inbounds %class.Sample_TempObstacles, ptr %5, i32 0, i32 5
  store ptr %25, ptr %28, align 8
  %29 = invoke noalias noundef nonnull ptr @_Znwm(i64 noundef 16) #13
          to label %30 unwind label %33

30:                                               ; preds = %27
  invoke void @_ZN22TempObstacleCreateToolC2Ev(ptr noundef nonnull align 8 dereferenceable(16) %29)
          to label %31 unwind label %45

31:                                               ; preds = %30
  invoke void @_ZN6Sample7setToolEP10SampleTool(ptr noundef nonnull align 8 dereferenceable(200) %5, ptr noundef %29)
          to label %32 unwind label %33

32:                                               ; preds = %31
  ret void

33:                                               ; preds = %31, %27, %23, %20, %17, %1
  %34 = landingpad { ptr, i32 }
          cleanup
  %35 = extractvalue { ptr, i32 } %34, 0
  store ptr %35, ptr %3, align 8
  %36 = extractvalue { ptr, i32 } %34, 1
  store i32 %36, ptr %4, align 4
  br label %49

37:                                               ; preds = %19
  %38 = landingpad { ptr, i32 }
          cleanup
  %39 = extractvalue { ptr, i32 } %38, 0
  store ptr %39, ptr %3, align 8
  %40 = extractvalue { ptr, i32 } %38, 1
  store i32 %40, ptr %4, align 4
  call void @_ZdlPv(ptr noundef %18) #11
  br label %49

41:                                               ; preds = %26
  %42 = landingpad { ptr, i32 }
          cleanup
  %43 = extractvalue { ptr, i32 } %42, 0
  store ptr %43, ptr %3, align 8
  %44 = extractvalue { ptr, i32 } %42, 1
  store i32 %44, ptr %4, align 4
  call void @_ZdlPv(ptr noundef %25) #11
  br label %49

45:                                               ; preds = %30
  %46 = landingpad { ptr, i32 }
          cleanup
  %47 = extractvalue { ptr, i32 } %46, 0
  store ptr %47, ptr %3, align 8
  %48 = extractvalue { ptr, i32 } %46, 1
  store i32 %48, ptr %4, align 4
  call void @_ZdlPv(ptr noundef %29) #11
  br label %49

49:                                               ; preds = %45, %41, %37, %33
  call void @_ZN6SampleD2Ev(ptr noundef nonnull align 8 dereferenceable(200) %5) #10
  br label %50

50:                                               ; preds = %49
  %51 = load ptr, ptr %3, align 8
  %52 = load i32, ptr %4, align 4
  %53 = insertvalue { ptr, i32 } poison, ptr %51, 0
  %54 = insertvalue { ptr, i32 } %53, i32 %52, 1
  resume { ptr, i32 } %54
}