; Function Attrs: mustprogress uwtable
define dso_local void @_ZN20Sample_TempObstaclesC2Ev(ptr noundef nonnull align 8 dereferenceable(276) %0) unnamed_addr #5 align 2 personality ptr @__gxx_personality_v0 {
  tail call void @_ZN6SampleC2Ev(ptr noundef nonnull align 8 dereferenceable(200) %0)
  store ptr getelementptr inbounds ({ [23 x ptr] }, ptr @_ZTV20Sample_TempObstacles, i64 0, i32 0, i64 2), ptr %0, align 8
  %2 = getelementptr inbounds i8, ptr %0, i64 200
  store i8 0, ptr %2, align 8
  %3 = getelementptr inbounds i8, ptr %0, i64 232
  %4 = getelementptr inbounds i8, ptr %0, i64 272
  tail call void @llvm.memset.p0.i64(ptr noundef nonnull align 8 dereferenceable(40) %3, i8 0, i64 40, i1 false)
  store float 4.800000e+01, ptr %4, align 8
  invoke void @_ZN6Sample19resetCommonSettingsEv(ptr noundef nonnull align 8 dereferenceable(200) %0)
          to label %5 unwind label %25

5:                                                ; preds = %1
  %6 = invoke noalias noundef nonnull dereferenceable(40) ptr @_Znwm(i64 noundef 40) #17
          to label %7 unwind label %25

7:                                                ; preds = %5
  store ptr getelementptr inbounds ({ [7 x ptr] }, ptr @_ZTV15LinearAllocator, i64 0, i32 0, i64 2), ptr %6, align 8
  %8 = getelementptr inbounds i8, ptr %6, i64 8
  tail call void @llvm.memset.p0.i64(ptr noundef nonnull align 8 dereferenceable(32) %8, i8 0, i64 32, i1 false)
  %9 = invoke noundef ptr @_Z7dtAllocm11dtAllocHint(i64 noundef 32000, i32 noundef 0)
          to label %11 unwind label %.body

.body:                                            ; preds = %7
  %10 = landingpad { ptr, i32 }
          cleanup
  tail call void @_ZN16dtTileCacheAllocD2Ev(ptr noundef nonnull align 8 dereferenceable(8) %6) #14
  tail call void @_ZdlPv(ptr noundef nonnull %6) #15
  br label %27

11:                                               ; preds = %7
  %12 = getelementptr inbounds i8, ptr %6, i64 16
  store ptr %9, ptr %8, align 8
  store i64 32000, ptr %12, align 8
  %13 = getelementptr inbounds i8, ptr %0, i64 208
  store ptr %6, ptr %13, align 8
  %14 = invoke noalias noundef nonnull dereferenceable(8) ptr @_Znwm(i64 noundef 8) #17
          to label %15 unwind label %25

15:                                               ; preds = %11
  store ptr getelementptr inbounds ({ [7 x ptr] }, ptr @_ZTV16FastLZCompressor, i64 0, i32 0, i64 2), ptr %14, align 8
  %16 = getelementptr inbounds i8, ptr %0, i64 216
  store ptr %14, ptr %16, align 8
  %17 = invoke noalias noundef nonnull dereferenceable(16) ptr @_Znwm(i64 noundef 16) #17
          to label %18 unwind label %25

18:                                               ; preds = %15
  store ptr getelementptr inbounds ({ [5 x ptr] }, ptr @_ZTV11MeshProcess, i64 0, i32 0, i64 2), ptr %17, align 8
  %19 = getelementptr inbounds i8, ptr %17, i64 8
  store ptr null, ptr %19, align 8
  %20 = getelementptr inbounds i8, ptr %0, i64 224
  store ptr %17, ptr %20, align 8
  %21 = invoke noalias noundef nonnull dereferenceable(16) ptr @_Znwm(i64 noundef 16) #17
          to label %22 unwind label %25

22:                                               ; preds = %18
  store ptr getelementptr inbounds ({ [14 x ptr] }, ptr @_ZTV22TempObstacleCreateTool, i64 0, i32 0, i64 2), ptr %21, align 8
  %23 = getelementptr inbounds i8, ptr %21, i64 8
  store ptr null, ptr %23, align 8
  invoke void @_ZN6Sample7setToolEP10SampleTool(ptr noundef nonnull align 8 dereferenceable(200) %0, ptr noundef nonnull %21)
          to label %24 unwind label %25

24:                                               ; preds = %22
  ret void

25:                                               ; preds = %22, %18, %15, %11, %5, %1
  %26 = landingpad { ptr, i32 }
          cleanup
  br label %27

27:                                               ; preds = %.body, %25
  %.pn = phi { ptr, i32 } [ %26, %25 ], [ %10, %.body ]
  tail call void @_ZN6SampleD2Ev(ptr noundef nonnull align 8 dereferenceable(200) %0) #14
  resume { ptr, i32 } %.pn
}